target datalayout = "e-m:e-p270:32:32-p271:32:32-p272:64:64-i64:64-i128:128-f80:128-n8:16:32:64-S128"
target triple = "x86_64-pc-linux-gnu"

%struct.AVFilterContext = type { ptr, ptr, ptr, ptr, ptr, i32, ptr, ptr, i32, ptr, ptr, i32, i32, ptr, ptr, ptr, ptr, i32, ptr, i32, i32 }
%struct.ShowVolumeContext = type { ptr, i32, i32, i32, double, %struct.AVRational, ptr, i32, i32, float, i32, i32, ptr, ptr, i32, i32, ptr, ptr, ptr, i32, double, [4 x i8], i32, ptr, ptr, ptr }
%struct.AVRational = type { i32, i32 }

@var_names = internal constant [4 x ptr] [ptr @.str.49, ptr @.str.50, ptr @.str.51, ptr null], align 16

; Function Attrs: cold nounwind optsize uwtable
define internal i32 @init(ptr noundef %0) #0 {
  %2 = alloca i32, align 4
  %3 = alloca ptr, align 8
  %4 = alloca ptr, align 8
  %5 = alloca i32, align 4
  %6 = alloca i32, align 4
  store ptr %0, ptr %3, align 8, !tbaa !4
  call void @llvm.lifetime.start.p0(i64 8, ptr %4) #12
  %7 = load ptr, ptr %3, align 8, !tbaa !4
  %8 = getelementptr inbounds nuw %struct.AVFilterContext, ptr %7, i32 0, i32 9
  %9 = load ptr, ptr %8, align 8, !tbaa !9
  store ptr %9, ptr %4, align 8, !tbaa !22
  call void @llvm.lifetime.start.p0(i64 4, ptr %5) #12
  %10 = load ptr, ptr %4, align 8, !tbaa !22
  %11 = getelementptr inbounds nuw %struct.ShowVolumeContext, ptr %10, i32 0, i32 6
  %12 = load ptr, ptr %11, align 8, !tbaa !24
  %13 = icmp ne ptr %12, null
  br i1 %13, label %14, label %27

14:                                               ; preds = %1
  %15 = load ptr, ptr %4, align 8, !tbaa !22
  %16 = getelementptr inbounds nuw %struct.ShowVolumeContext, ptr %15, i32 0, i32 13
  %17 = load ptr, ptr %4, align 8, !tbaa !22
  %18 = getelementptr inbounds nuw %struct.ShowVolumeContext, ptr %17, i32 0, i32 6
  %19 = load ptr, ptr %18, align 8, !tbaa !24
  %20 = load ptr, ptr %3, align 8, !tbaa !4
  %21 = call i32 @av_expr_parse(ptr noundef %16, ptr noundef %19, ptr noundef @var_names, ptr noundef null, ptr noundef null, ptr noundef null, ptr noundef null, i32 noundef 0, ptr noundef %20)
  store i32 %21, ptr %5, align 4, !tbaa !33
  %22 = load i32, ptr %5, align 4, !tbaa !33
  %23 = icmp slt i32 %22, 0
  br i1 %23, label %24, label %26

24:                                               ; preds = %14
  %25 = load i32, ptr %5, align 4, !tbaa !33
  store i32 %25, ptr %2, align 4
  store i32 1, ptr %6, align 4
  br label %28

26:                                               ; preds = %14
  br label %27

27:                                               ; preds = %26, %1
  store i32 0, ptr %2, align 4
  store i32 1, ptr %6, align 4
  br label %28

28:                                               ; preds = %27, %24
  call void @llvm.lifetime.end.p0(i64 4, ptr %5) #12
  call void @llvm.lifetime.end.p0(i64 8, ptr %4) #12
  %29 = load i32, ptr %2, align 4
  ret i32 %29
}